target datalayout = "e-m:e-p270:32:32-p271:32:32-p272:64:64-i64:64-i128:128-f80:128-n8:16:32:64-S128"
target triple = "x86_64-pc-linux-gnu"

%struct._generic_N_Vector = type { ptr, ptr, ptr }
%struct._SUNQRData = type { ptr, ptr, ptr }

; Function Attrs: nounwind uwtable
define i32 @SUNQRAdd_DCGS2(ptr noundef %0, ptr noundef %1, ptr noundef %2, i32 noundef %3, i32 noundef %4, ptr noundef %5) #0 {
  %7 = alloca ptr, align 8
  %8 = alloca ptr, align 8
  %9 = alloca ptr, align 8
  %10 = alloca i32, align 4
  %11 = alloca i32, align 4
  %12 = alloca ptr, align 8
  %13 = alloca ptr, align 8
  %14 = alloca i64, align 8
  %15 = alloca ptr, align 8
  store ptr %0, ptr %7, align 8, !tbaa !3
  store ptr %1, ptr %8, align 8, !tbaa !12
  store ptr %2, ptr %9, align 8, !tbaa !14
  store i32 %3, ptr %10, align 4, !tbaa !10
  store i32 %4, ptr %11, align 4, !tbaa !10
  store ptr %5, ptr %12, align 8, !tbaa !23
  call void @llvm.lifetime.start.p0(i64 8, ptr %13) #5
  %16 = load ptr, ptr %7, align 8, !tbaa !3
  %17 = getelementptr inbounds ptr, ptr %16, i64 0
  %18 = load ptr, ptr %17, align 8, !tbaa !14
  %19 = getelementptr inbounds nuw %struct._generic_N_Vector, ptr %18, i32 0, i32 2
  %20 = load ptr, ptr %19, align 8, !tbaa !16
  store ptr %20, ptr %13, align 8, !tbaa !20
  call void @llvm.lifetime.start.p0(i64 8, ptr %14) #5
  call void @llvm.lifetime.start.p0(i64 8, ptr %15) #5
  %21 = load ptr, ptr %12, align 8, !tbaa !23
  store ptr %21, ptr %15, align 8, !tbaa !24
  %22 = load ptr, ptr %9, align 8, !tbaa !14
  %23 = load ptr, ptr %15, align 8, !tbaa !24
  %24 = getelementptr inbounds nuw %struct._SUNQRData, ptr %23, i32 0, i32 0
  %25 = load ptr, ptr %24, align 8, !tbaa !26
  call void @N_VScale(double noundef 1.000000e+00, ptr noundef %22, ptr noundef %25)
  %26 = load i32, ptr %10, align 4, !tbaa !10
  %27 = icmp sgt i32 %26, 0
  br i1 %27, label %28, label %141

28:                                               ; preds = %6
  %29 = load i32, ptr %10, align 4, !tbaa !10
  %30 = load ptr, ptr %15, align 8, !tbaa !24
  %31 = getelementptr inbounds nuw %struct._SUNQRData, ptr %30, i32 0, i32 0
  %32 = load ptr, ptr %31, align 8, !tbaa !26
  %33 = load ptr, ptr %7, align 8, !tbaa !3
  %34 = load ptr, ptr %8, align 8, !tbaa !12
  %35 = load i32, ptr %10, align 4, !tbaa !10
  %36 = load i32, ptr %11, align 4, !tbaa !10
  %37 = mul nsw i32 %35, %36
  %38 = sext i32 %37 to i64
  %39 = getelementptr inbounds double, ptr %34, i64 %38
  %40 = call i32 @N_VDotProdMulti(i32 noundef %29, ptr noundef %32, ptr noundef %33, ptr noundef %39)
  %41 = load i32, ptr %10, align 4, !tbaa !10
  %42 = icmp sgt i32 %41, 1
  br i1 %42, label %43, label %119

43:                                               ; preds = %28
  %44 = load i32, ptr %10, align 4, !tbaa !10
  %45 = sub nsw i32 %44, 1
  %46 = load ptr, ptr %7, align 8, !tbaa !3
  %47 = load i32, ptr %10, align 4, !tbaa !10
  %48 = sub nsw i32 %47, 1
  %49 = sext i32 %48 to i64
  %50 = getelementptr inbounds ptr, ptr %46, i64 %49
  %51 = load ptr, ptr %50, align 8, !tbaa !14
  %52 = load ptr, ptr %7, align 8, !tbaa !3
  %53 = load ptr, ptr %15, align 8, !tbaa !24
  %54 = getelementptr inbounds nuw %struct._SUNQRData, ptr %53, i32 0, i32 2
  %55 = load ptr, ptr %54, align 8, !tbaa !30
  %56 = call i32 @N_VDotProdMulti(i32 noundef %45, ptr noundef %51, ptr noundef %52, ptr noundef %55)
  %57 = load i32, ptr %10, align 4, !tbaa !10
  %58 = sub nsw i32 %57, 1
  %59 = load ptr, ptr %15, align 8, !tbaa !24
  %60 = getelementptr inbounds nuw %struct._SUNQRData, ptr %59, i32 0, i32 2
  %61 = load ptr, ptr %60, align 8, !tbaa !30
  %62 = load ptr, ptr %7, align 8, !tbaa !3
  %63 = load ptr, ptr %15, align 8, !tbaa !24
  %64 = getelementptr inbounds nuw %struct._SUNQRData, ptr %63, i32 0, i32 1
  %65 = load ptr, ptr %64, align 8, !tbaa !31
  %66 = call i32 @N_VLinearCombination(i32 noundef %58, ptr noundef %61, ptr noundef %62, ptr noundef %65)
  %67 = load ptr, ptr %7, align 8, !tbaa !3
  %68 = load i32, ptr %10, align 4, !tbaa !10
  %69 = sub nsw i32 %68, 1
  %70 = sext i32 %69 to i64
  %71 = getelementptr inbounds ptr, ptr %67, i64 %70
  %72 = load ptr, ptr %71, align 8, !tbaa !14
  %73 = load ptr, ptr %15, align 8, !tbaa !24
  %74 = getelementptr inbounds nuw %struct._SUNQRData, ptr %73, i32 0, i32 1
  %75 = load ptr, ptr %74, align 8, !tbaa !31
  %76 = load ptr, ptr %7, align 8, !tbaa !3
  %77 = load i32, ptr %10, align 4, !tbaa !10
  %78 = sub nsw i32 %77, 1
  %79 = sext i32 %78 to i64
  %80 = getelementptr inbounds ptr, ptr %76, i64 %79
  %81 = load ptr, ptr %80, align 8, !tbaa !14
  call void @N_VLinearSum(double noundef 1.000000e+00, ptr noundef %72, double noundef -1.000000e+00, ptr noundef %75, ptr noundef %81)
  store i64 0, ptr %14, align 8, !tbaa !28
  br label %82

82:                                               ; preds = %115, %43
  %83 = load i64, ptr %14, align 8, !tbaa !28
  %84 = load i32, ptr %10, align 4, !tbaa !10
  %85 = sub nsw i32 %84, 1
  %86 = sext i32 %85 to i64
  %87 = icmp slt i64 %83, %86
  br i1 %87, label %88, label %118

88:                                               ; preds = %82
  %89 = load ptr, ptr %8, align 8, !tbaa !12
  %90 = load i32, ptr %10, align 4, !tbaa !10
  %91 = sub nsw i32 %90, 1
  %92 = load i32, ptr %11, align 4, !tbaa !10
  %93 = mul nsw i32 %91, %92
  %94 = sext i32 %93 to i64
  %95 = load i64, ptr %14, align 8, !tbaa !28
  %96 = add nsw i64 %94, %95
  %97 = getelementptr inbounds double, ptr %89, i64 %96
  %98 = load double, ptr %97, align 8, !tbaa !21
  %99 = load ptr, ptr %15, align 8, !tbaa !24
  %100 = getelementptr inbounds nuw %struct._SUNQRData, ptr %99, i32 0, i32 2
  %101 = load ptr, ptr %100, align 8, !tbaa !30
  %102 = load i64, ptr %14, align 8, !tbaa !28
  %103 = getelementptr inbounds double, ptr %101, i64 %102
  %104 = load double, ptr %103, align 8, !tbaa !21
  %105 = fadd double %98, %104
  %106 = load ptr, ptr %8, align 8, !tbaa !12
  %107 = load i32, ptr %10, align 4, !tbaa !10
  %108 = sub nsw i32 %107, 1
  %109 = load i32, ptr %11, align 4, !tbaa !10
  %110 = mul nsw i32 %108, %109
  %111 = sext i32 %110 to i64
  %112 = load i64, ptr %14, align 8, !tbaa !28
  %113 = add nsw i64 %111, %112
  %114 = getelementptr inbounds double, ptr %106, i64 %113
  store double %105, ptr %114, align 8, !tbaa !21
  br label %115

115:                                              ; preds = %88
  %116 = load i64, ptr %14, align 8, !tbaa !28
  %117 = add nsw i64 %116, 1
  store i64 %117, ptr %14, align 8, !tbaa !28
  br label %82

118:                                              ; preds = %82
  br label %119

119:                                              ; preds = %118, %28
  %120 = load i32, ptr %10, align 4, !tbaa !10
  %121 = load ptr, ptr %8, align 8, !tbaa !12
  %122 = load i32, ptr %10, align 4, !tbaa !10
  %123 = load i32, ptr %11, align 4, !tbaa !10
  %124 = mul nsw i32 %122, %123
  %125 = sext i32 %124 to i64
  %126 = getelementptr inbounds double, ptr %121, i64 %125
  %127 = load ptr, ptr %7, align 8, !tbaa !3
  %128 = load ptr, ptr %15, align 8, !tbaa !24
  %129 = getelementptr inbounds nuw %struct._SUNQRData, ptr %128, i32 0, i32 1
  %130 = load ptr, ptr %129, align 8, !tbaa !31
  %131 = call i32 @N_VLinearCombination(i32 noundef %120, ptr noundef %126, ptr noundef %127, ptr noundef %130)
  %132 = load ptr, ptr %15, align 8, !tbaa !24
  %133 = getelementptr inbounds nuw %struct._SUNQRData, ptr %132, i32 0, i32 0
  %134 = load ptr, ptr %133, align 8, !tbaa !26
  %135 = load ptr, ptr %15, align 8, !tbaa !24
  %136 = getelementptr inbounds nuw %struct._SUNQRData, ptr %135, i32 0, i32 1
  %137 = load ptr, ptr %136, align 8, !tbaa !31
  %138 = load ptr, ptr %15, align 8, !tbaa !24
  %139 = getelementptr inbounds nuw %struct._SUNQRData, ptr %138, i32 0, i32 0
  %140 = load ptr, ptr %139, align 8, !tbaa !26
  call void @N_VLinearSum(double noundef 1.000000e+00, ptr noundef %134, double noundef -1.000000e+00, ptr noundef %137, ptr noundef %140)
  br label %141

141:                                              ; preds = %119, %6
  %142 = load ptr, ptr %15, align 8, !tbaa !24
  %143 = getelementptr inbounds nuw %struct._SUNQRData, ptr %142, i32 0, i32 0
  %144 = load ptr, ptr %143, align 8, !tbaa !26
  %145 = load ptr, ptr %15, align 8, !tbaa !24
  %146 = getelementptr inbounds nuw %struct._SUNQRData, ptr %145, i32 0, i32 0
  %147 = load ptr, ptr %146, align 8, !tbaa !26
  %148 = call double @N_VDotProd(ptr noundef %144, ptr noundef %147)
  %149 = load ptr, ptr %8, align 8, !tbaa !12
  %150 = load i32, ptr %10, align 4, !tbaa !10
  %151 = load i32, ptr %11, align 4, !tbaa !10
  %152 = mul nsw i32 %150, %151
  %153 = load i32, ptr %10, align 4, !tbaa !10
  %154 = add nsw i32 %152, %153
  %155 = sext i32 %154 to i64
  %156 = getelementptr inbounds double, ptr %149, i64 %155
  store double %148, ptr %156, align 8, !tbaa !21
  %157 = load ptr, ptr %8, align 8, !tbaa !12
  %158 = load i32, ptr %10, align 4, !tbaa !10
  %159 = load i32, ptr %11, align 4, !tbaa !10
  %160 = mul nsw i32 %158, %159
  %161 = load i32, ptr %10, align 4, !tbaa !10
  %162 = add nsw i32 %160, %161
  %163 = sext i32 %162 to i64
  %164 = getelementptr inbounds double, ptr %157, i64 %163
  %165 = load double, ptr %164, align 8, !tbaa !21
  %166 = fcmp ole double %165, 0.000000e+00
  br i1 %166, label %167, label %168

167:                                              ; preds = %141
  br label %179

168:                                              ; preds = %141
  %169 = load ptr, ptr %8, align 8, !tbaa !12
  %170 = load i32, ptr %10, align 4, !tbaa !10
  %171 = load i32, ptr %11, align 4, !tbaa !10
  %172 = mul nsw i32 %170, %171
  %173 = load i32, ptr %10, align 4, !tbaa !10
  %174 = add nsw i32 %172, %173
  %175 = sext i32 %174 to i64
  %176 = getelementptr inbounds double, ptr %169, i64 %175
  %177 = load double, ptr %176, align 8, !tbaa !21
  %178 = call double @sqrt(double noundef %177) #5, !tbaa !10
  br label %179

179:                                              ; preds = %168, %167
  %180 = phi double [ 0.000000e+00, %167 ], [ %178, %168 ]
  %181 = load ptr, ptr %8, align 8, !tbaa !12
  %182 = load i32, ptr %10, align 4, !tbaa !10
  %183 = load i32, ptr %11, align 4, !tbaa !10
  %184 = mul nsw i32 %182, %183
  %185 = load i32, ptr %10, align 4, !tbaa !10
  %186 = add nsw i32 %184, %185
  %187 = sext i32 %186 to i64
  %188 = getelementptr inbounds double, ptr %181, i64 %187
  store double %180, ptr %188, align 8, !tbaa !21
  %189 = load ptr, ptr %8, align 8, !tbaa !12
  %190 = load i32, ptr %10, align 4, !tbaa !10
  %191 = load i32, ptr %11, align 4, !tbaa !10
  %192 = mul nsw i32 %190, %191
  %193 = load i32, ptr %10, align 4, !tbaa !10
  %194 = add nsw i32 %192, %193
  %195 = sext i32 %194 to i64
  %196 = getelementptr inbounds double, ptr %189, i64 %195
  %197 = load double, ptr %196, align 8, !tbaa !21
  %198 = fdiv double 1.000000e+00, %197
  %199 = load ptr, ptr %15, align 8, !tbaa !24
  %200 = getelementptr inbounds nuw %struct._SUNQRData, ptr %199, i32 0, i32 0
  %201 = load ptr, ptr %200, align 8, !tbaa !26
  %202 = load ptr, ptr %7, align 8, !tbaa !3
  %203 = load i32, ptr %10, align 4, !tbaa !10
  %204 = sext i32 %203 to i64
  %205 = getelementptr inbounds ptr, ptr %202, i64 %204
  %206 = load ptr, ptr %205, align 8, !tbaa !14
  call void @N_VScale(double noundef %198, ptr noundef %201, ptr noundef %206)
  call void @llvm.lifetime.end.p0(i64 8, ptr %15) #5
  call void @llvm.lifetime.end.p0(i64 8, ptr %14) #5
  call void @llvm.lifetime.end.p0(i64 8, ptr %13) #5
  ret i32 0
}