; Function Attrs: nounwind uwtable
define noundef i32 @SUNQRAdd_DCGS2(ptr noundef %0, ptr noundef %1, ptr noundef %2, i32 noundef %3, i32 noundef %4, ptr noundef readonly captures(none) %5) local_unnamed_addr #0 {
  %7 = load ptr, ptr %5, align 8, !tbaa !14
  tail call void @N_VScale(double noundef 1.000000e+00, ptr noundef %2, ptr noundef %7) #7
  %8 = icmp sgt i32 %3, 0
  br i1 %8, label %9, label %42

9:                                                ; preds = %6
  %10 = load ptr, ptr %5, align 8, !tbaa !14
  %11 = mul nsw i32 %4, %3
  %12 = sext i32 %11 to i64
  %13 = getelementptr inbounds double, ptr %1, i64 %12
  %14 = tail call i32 @N_VDotProdMulti(i32 noundef %3, ptr noundef %10, ptr noundef %0, ptr noundef %13) #7
  %.not = icmp eq i32 %3, 1
  br i1 %.not, label %.loopexit, label %.lr.ph

.lr.ph:                                           ; preds = %9
  %15 = add nsw i32 %3, -1
  %16 = zext nneg i32 %15 to i64
  %17 = getelementptr inbounds nuw ptr, ptr %0, i64 %16
  %18 = load ptr, ptr %17, align 8, !tbaa !3
  %19 = getelementptr inbounds nuw i8, ptr %5, i64 16
  %20 = load ptr, ptr %19, align 8, !tbaa !16
  %21 = tail call i32 @N_VDotProdMulti(i32 noundef %15, ptr noundef %18, ptr noundef %0, ptr noundef %20) #7
  %22 = load ptr, ptr %19, align 8, !tbaa !16
  %23 = getelementptr inbounds nuw i8, ptr %5, i64 8
  %24 = load ptr, ptr %23, align 8, !tbaa !17
  %25 = tail call i32 @N_VLinearCombination(i32 noundef %15, ptr noundef %22, ptr noundef %0, ptr noundef %24) #7
  %26 = load ptr, ptr %17, align 8, !tbaa !3
  %27 = load ptr, ptr %23, align 8, !tbaa !17
  tail call void @N_VLinearSum(double noundef 1.000000e+00, ptr noundef %26, double noundef -1.000000e+00, ptr noundef %27, ptr noundef %26) #7
  %28 = mul nsw i32 %15, %4
  %29 = sext i32 %28 to i64
  %invariant.gep = getelementptr double, ptr %1, i64 %29
  %30 = load ptr, ptr %19, align 8, !tbaa !16
  br label %31

31:                                               ; preds = %.lr.ph, %31
  %.074 = phi i64 [ 0, %.lr.ph ], [ %36, %31 ]
  %gep = getelementptr double, ptr %invariant.gep, i64 %.074
  %32 = load double, ptr %gep, align 8, !tbaa !12
  %33 = getelementptr inbounds nuw double, ptr %30, i64 %.074
  %34 = load double, ptr %33, align 8, !tbaa !12
  %35 = fadd double %32, %34
  store double %35, ptr %gep, align 8, !tbaa !12
  %36 = add nuw nsw i64 %.074, 1
  %exitcond.not = icmp eq i64 %36, %16
  br i1 %exitcond.not, label %.loopexit, label %31

.loopexit:                                        ; preds = %31, %9
  %37 = getelementptr inbounds nuw i8, ptr %5, i64 8
  %38 = load ptr, ptr %37, align 8, !tbaa !17
  %39 = tail call i32 @N_VLinearCombination(i32 noundef %3, ptr noundef %13, ptr noundef %0, ptr noundef %38) #7
  %40 = load ptr, ptr %5, align 8, !tbaa !14
  %41 = load ptr, ptr %37, align 8, !tbaa !17
  tail call void @N_VLinearSum(double noundef 1.000000e+00, ptr noundef %40, double noundef -1.000000e+00, ptr noundef %41, ptr noundef %40) #7
  br label %42

42:                                               ; preds = %.loopexit, %6
  %43 = load ptr, ptr %5, align 8, !tbaa !14
  %44 = tail call double @N_VDotProd(ptr noundef %43, ptr noundef %43) #7
  %45 = fcmp ugt double %44, 0.000000e+00
  br i1 %45, label %46, label %48

46:                                               ; preds = %42
  %47 = tail call double @sqrt(double noundef %44) #7, !tbaa !8
  br label %48

48:                                               ; preds = %42, %46
  %49 = phi double [ %47, %46 ], [ 0.000000e+00, %42 ]
  %50 = add i32 %4, 1
  %51 = mul i32 %50, %3
  %52 = sext i32 %51 to i64
  %53 = getelementptr inbounds double, ptr %1, i64 %52
  store double %49, ptr %53, align 8, !tbaa !12
  %54 = fdiv double 1.000000e+00, %49
  %55 = load ptr, ptr %5, align 8, !tbaa !14
  %56 = sext i32 %3 to i64
  %57 = getelementptr inbounds ptr, ptr %0, i64 %56
  %58 = load ptr, ptr %57, align 8, !tbaa !3
  tail call void @N_VScale(double noundef %54, ptr noundef %55, ptr noundef %58) #7
  ret i32 0
}